; Function Attrs: mustprogress nounwind uwtable
define hidden noundef zeroext i1 @_ZNK12MetadataType9is_loadedEv(ptr noundef nonnull align 8 dereferenceable(16) %0) local_unnamed_addr #0 align 2 {
  %2 = load ptr, ptr %0, align 8
  %3 = getelementptr inbounds i8, ptr %2, i64 224
  %4 = load ptr, ptr %3, align 8
  %5 = tail call noundef ptr %4(ptr noundef nonnull align 8 dereferenceable(16) %0) #6
  %6 = getelementptr inbounds i8, ptr %5, i64 16
  %7 = load ptr, ptr %6, align 8
  %.not.i = icmp eq ptr %7, null
  br i1 %.not.i, label %8, label %_ZNK10ciMetadata9is_loadedEv.exit

8:                                                ; preds = %1
  %9 = load ptr, ptr %5, align 8
  %10 = getelementptr inbounds i8, ptr %9, i64 32
  %11 = load ptr, ptr %10, align 8
  %12 = tail call noundef zeroext i1 %11(ptr noundef nonnull align 8 dereferenceable(24) %5) #6
  br label %_ZNK10ciMetadata9is_loadedEv.exit

_ZNK10ciMetadata9is_loadedEv.exit:                ; preds = %1, %8
  %13 = phi i1 [ true, %1 ], [ %12, %8 ]
  ret i1 %13
}